; Function Attrs: mustprogress uwtable
define noundef zeroext i1 @_ZN8facebook5velox6memory14MemoryPoolImpl12maybeReserveEm(ptr noundef nonnull align 8 dereferenceable(480) %this, i64 noundef %increment) unnamed_addr #0 align 2 personality ptr @__gxx_personality_v0 {
entry:
  %ref.tmp = alloca %"class.std::__cxx11::basic_string", align 8
  %ref.tmp2 = alloca %"class.std::allocator", align 1
  %agg.tmp = alloca %"class.std::__exception_ptr::exception_ptr", align 8
  %kind_ = getelementptr inbounds i8, ptr %this, i64 56
  %0 = load i32, ptr %kind_, align 8
  %cmp.not = icmp eq i32 %0, 0
  br i1 %cmp.not, label %if.end, label %if.then

if.then:                                          ; preds = %entry
  tail call void @llvm.trap()
  unreachable

if.end:                                           ; preds = %entry
  %numReserves_ = getelementptr inbounds i8, ptr %this, i64 360
  %1 = atomicrmw add ptr %numReserves_, i64 1 seq_cst, align 8
  call void @_ZNSaIcEC1Ev(ptr noundef nonnull align 1 dereferenceable(1) %ref.tmp2) #26
  %call.i3 = invoke noundef ptr @_ZNSt7__cxx1112basic_stringIcSt11char_traitsIcESaIcEE13_M_local_dataEv(ptr noundef nonnull align 8 dereferenceable(32) %ref.tmp)
          to label %call.i.noexc unwind label %lpad

call.i.noexc:                                     ; preds = %if.end
  invoke void @_ZNSt7__cxx1112basic_stringIcSt11char_traitsIcESaIcEE12_Alloc_hiderC1EPcRKS3_(ptr noundef nonnull align 8 dereferenceable(8) %ref.tmp, ptr noundef %call.i3, ptr noundef nonnull align 1 dereferenceable(1) %ref.tmp2)
          to label %.noexc unwind label %lpad

.noexc:                                           ; preds = %call.i.noexc
  invoke void @_ZNSt7__cxx1112basic_stringIcSt11char_traitsIcESaIcEE12_M_constructIPKcEEvT_S8_St20forward_iterator_tag(ptr noundef nonnull align 8 dereferenceable(32) %ref.tmp, ptr noundef nonnull @.str.10, ptr noundef nonnull getelementptr inbounds ([62 x i8], ptr @.str.10, i64 0, i64 61))
          to label %invoke.cont unwind label %lpad.i

lpad.i:                                           ; preds = %.noexc
  %2 = landingpad { ptr, i32 }
          cleanup
  call void @_ZNSaIcED2Ev(ptr noundef nonnull align 1 dereferenceable(1) %ref.tmp) #26
  br label %lpad.body

invoke.cont:                                      ; preds = %.noexc
  call void @_ZNSt7__cxx1112basic_stringIcSt11char_traitsIcESaIcEED1Ev(ptr noundef nonnull align 8 dereferenceable(32) %ref.tmp) #26
  call void @_ZNSaIcED1Ev(ptr noundef nonnull align 1 dereferenceable(1) %ref.tmp2) #26
  %add.i = add i64 %increment, 8388607
  %mul.i = and i64 %add.i, -8388608
  invoke void @_ZN8facebook5velox6memory14MemoryPoolImpl7reserveEmb(ptr noundef nonnull align 8 dereferenceable(480) %this, i64 noundef %mul.i, i1 noundef zeroext true)
          to label %return unwind label %lpad6

lpad:                                             ; preds = %call.i.noexc, %if.end
  %3 = landingpad { ptr, i32 }
          cleanup
  br label %lpad.body

lpad.body:                                        ; preds = %lpad.i, %lpad
  %eh.lpad-body = phi { ptr, i32 } [ %3, %lpad ], [ %2, %lpad.i ]
  call void @_ZNSaIcED1Ev(ptr noundef nonnull align 1 dereferenceable(1) %ref.tmp2) #26
  br label %eh.resume

lpad6:                                            ; preds = %invoke.cont
  %4 = landingpad { ptr, i32 }
          catch ptr @_ZTISt9exception
  %5 = extractvalue { ptr, i32 } %4, 1
  %6 = call i32 @llvm.eh.typeid.for(ptr nonnull @_ZTISt9exception) #26
  %matches = icmp eq i32 %5, %6
  br i1 %matches, label %catch, label %eh.resume

catch:                                            ; preds = %lpad6
  %7 = extractvalue { ptr, i32 } %4, 0
  %8 = call ptr @__cxa_begin_catch(ptr %7) #26
  %vtable = load ptr, ptr %this, align 8
  %vfn = getelementptr inbounds i8, ptr %vtable, i64 352
  %9 = load ptr, ptr %vfn, align 8
  %call10 = invoke noundef zeroext i1 %9(ptr noundef nonnull align 8 dereferenceable(480) %this)
          to label %invoke.cont9 unwind label %lpad8

invoke.cont9:                                     ; preds = %catch
  br i1 %call10, label %if.then11, label %if.end15

if.then11:                                        ; preds = %invoke.cont9
  call void @_ZSt17current_exceptionv(ptr nonnull sret(%"class.std::__exception_ptr::exception_ptr") align 8 %agg.tmp) #26
  invoke void @_ZSt17rethrow_exceptionNSt15__exception_ptr13exception_ptrE(ptr noundef nonnull %agg.tmp) #29
          to label %invoke.cont13 unwind label %lpad12

invoke.cont13:                                    ; preds = %if.then11
  unreachable

lpad8:                                            ; preds = %catch
  %10 = landingpad { ptr, i32 }
          cleanup
  br label %ehcleanup16

lpad12:                                           ; preds = %if.then11
  %11 = landingpad { ptr, i32 }
          cleanup
  %12 = load ptr, ptr %agg.tmp, align 8
  %tobool.not.i = icmp eq ptr %12, null
  br i1 %tobool.not.i, label %ehcleanup16, label %if.then.i

if.then.i:                                        ; preds = %lpad12
  call void @_ZNSt15__exception_ptr13exception_ptr10_M_releaseEv(ptr noundef nonnull align 8 dereferenceable(8) %agg.tmp) #26
  br label %ehcleanup16

if.end15:                                         ; preds = %invoke.cont9
  call void @__cxa_end_catch()
  br label %return

ehcleanup16:                                      ; preds = %if.then.i, %lpad12, %lpad8
  %.pn = phi { ptr, i32 } [ %10, %lpad8 ], [ %11, %lpad12 ], [ %11, %if.then.i ]
  invoke void @__cxa_end_catch()
          to label %eh.resume unwind label %terminate.lpad

return:                                           ; preds = %invoke.cont, %if.end15
  %retval.0 = phi i1 [ false, %if.end15 ], [ true, %invoke.cont ]
  ret i1 %retval.0

eh.resume:                                        ; preds = %ehcleanup16, %lpad6, %lpad.body
  %lpad.val20.merged = phi { ptr, i32 } [ %.pn, %ehcleanup16 ], [ %4, %lpad6 ], [ %eh.lpad-body, %lpad.body ]
  resume { ptr, i32 } %lpad.val20.merged

terminate.lpad:                                   ; preds = %ehcleanup16
  %13 = landingpad { ptr, i32 }
          catch ptr null
  %14 = extractvalue { ptr, i32 } %13, 0
  call void @__clang_call_terminate(ptr %14) #28
  unreachable
}